(dp1
S'output'
p2
S'<class \'_mysql_exceptions.ProgrammingError\'> (1064, "You have an error in your SQL syntax; check the manual that corresponds to your MySQL server version for the right syntax to use near \'of products\' at line 1")'
p3
sS'layer'
p4
S'/home/hduser/web2py/applications/Policy_server/controllers/default.py'
p5
sS'code'
p6
S'# -*- coding: utf-8 -*-\n# this file is released under public domain and you can use without limitations\n\n#########################################################################\n## This is a sample controller\n## - index is the default action of any application\n## - user is required for authentication and authorization\n## - download is for downloading files uploaded in the db (does streaming)\n## - call exposes all registered services (none by default)\n#########################################################################\n\n\ndef index():\n    """\n    example action using the internationalization operator T and flash\n    rendered by views/default/index.html or views/generic.html\n\n    if you need a simple wiki simply replace the two lines below with:\n    return auth.wiki()\n    """\n    response.flash = T("Welcome to web2py!")\n    return dict(message=T(\'Hello World\'))\n\nimport os\nimport subprocess\nimport MySQLdb\n\n\nmachine = "localhost";\ndb_username="root";\ndb_password="hadoop";\ndef page():\n    connection = MySQLdb.connect(host=machine,user=db_username,passwd=db_password)\n    cur = connection.cursor()\n    query = "show databases"\n    cur.execute(query)\n    databases = cur.fetchall()\n    print databases\n    dir1 = {}\n    dat = []\n    print dir1\n    for (d,) in databases:\n                dir1[d] = {}\n                dat.append(d)\n  #              cur = connection.cursor()\n  #              query1 = "use "+d\n  #              cur.execute(query1)\n                \n                connection1 = MySQLdb.connect(host=machine,user=db_username,passwd=db_password,db=d)\n                cur = connection1.cursor()\n                query2 = "show tables"\n                cur.execute(query2)\n                tables = cur.fetchall()\n                for (t,) in tables:\n                        dir1[d][t] = []\n                        cur = connection1.cursor()\n                        query = "desc "+t +";";\n                        cur.execute(query);\n                        columns = cur.fetchall()\n                        print dir1\n                        for i in columns:\n                                dir1[d][t].append(i[0])\n    return dict(dir1=dir1,dat=dat)\n\nimport os.path\nimport json\nfrom pprint import pprint                        \n                        \ndef nextpage():\n        postvars = request.post_vars\n        dir2 = {}\n        database = postvars[\'dropbox\']\n        dir2[database] = {}\n        temp = {}\n        filename = postvars[\'Policy_name\']\n        print "^^^^^^^^^^^^^^^^^^^^^^^^^^^^^^^^^^^^^^^^^^^^^^^^^^^"\n        print filename\n        postkeys = postvars.keys()\n        L = []\n        for i in postkeys:\n                if i == "save" or i == "dropbox" or i == "policy_name":\n                        continue;\n                else:\n                        p = i.split(\'$\')\n                        if (p[0] != database):\n                                continue;\n                        else:\n                                temp[i] = postvars[i]\n                                if (len(p) == 2):\n                                      if (postvars[i] != \'\'):\n                                              dir2[database][p[1]] = {}\n                                              L.append(p[1])\n                                """\n                                l = len(p)\n                                if (l == 2):\n                                        if (postvars[i] == \'\'):\n                                                continue;\n                                        if p[1] in dir1[database].keys():\n                                                 print "yeah"\n                                        else:\n                                                 dir1[database][p[1]] = {}\n                                else if (l == 3):\n                                        if p[1] in d\n                                """ \n        connection = MySQLdb.connect(host=machine,user=db_username,passwd=db_password,db=database)\n        for i in L:\n                cur = connection.cursor()\n                query = "desc "+ i+";"\n                cur.execute(query);\n                columns = cur.fetchall()\n                for j in columns:\n                        if (database+"$"+i+"$"+j[0] in temp.keys()):\n                                if (postvars[database+"$"+i+"$"+j[0]+"$method"] == "mask" ):\n                                        dir2[database][i][j[0]] = {"mask" : postvars[database+"$"+i+"$"+j[0]+"$info"]}\n                                else:\n                                        dir2[database][i][j[0]] = postvars[database+"$"+i+"$"+j[0]+"$method"]\n                           \n                          \n                \n                \n        \n        """\n        for i in L:\n                for k in dir1[database][i]:\n                        if postvars[database+"$"+i+"$"+k] =\n                \n        """\n        print dir2\n        for i in dir2[database].keys():\n                if dir2[database][i] == {}:\n                        \n                         del dir2[database][i]\n        print dir2\n        fname = \'./applications/Policy_server/json_files/\'+filename+\'.json\'\n        if os.path.isfile(fname) == True:\n                print "file exist"\n        else:\n                print "file does not exist"\n                with open(fname,\'w\') as f:\n                     json.dump(dir2, f,ensure_ascii=False)\n                     f.write(\'\\n\')\n                        \n        return dict(temp=temp)\n\n\n\n\ndef json_html():\n        postvars = request.get_vars;\n        print postvars\n        filename1 = postvars[\'fname\']\n        filename= ""\n        filename=filename+"./applications/Policy_server/json_files/"\n        filename=filename+filename1+".json"\n        f = open(filename,\'r\')\n        L = []\n        L = f.readlines()\n        print L\n        f.close()\n        return dict(L=L)\n\n\ndef user():\n    """\n    exposes:\n    http://..../[app]/default/user/login\n    http://..../[app]/default/user/logout\n    http://..../[app]/default/user/register\n    http://..../[app]/default/user/profile\n    http://..../[app]/default/user/retrieve_password\n    http://..../[app]/default/user/change_password\n    http://..../[app]/default/user/manage_users (requires membership in\n    use @auth.requires_login()\n        @auth.requires_membership(\'group name\')\n        @auth.requires_permission(\'read\',\'table name\',record_id)\n    to decorate functions that need access control\n    """\n    return dict(form=auth())\n\nresponse._vars=response._caller(page)\n'
p7
sS'snapshot'
p8
(dp9
sS'traceback'
p10
S'Traceback (most recent call last):\n  File "/home/hduser/web2py/gluon/restricted.py", line 220, in restricted\n    exec ccode in environment\n  File "/home/hduser/web2py/applications/Policy_server/controllers/default.py", line 180, in <module>\n  File "/home/hduser/web2py/gluon/globals.py", line 385, in <lambda>\n    self._caller = lambda f: f()\n  File "/home/hduser/web2py/applications/Policy_server/controllers/default.py", line 58, in page\n    cur.execute(query);\n  File "/usr/lib/python2.7/dist-packages/MySQLdb/cursors.py", line 174, in execute\n    self.errorhandler(self, exc, value)\n  File "/usr/lib/python2.7/dist-packages/MySQLdb/connections.py", line 36, in defaulterrorhandler\n    raise errorclass, errorvalue\nProgrammingError: (1064, "You have an error in your SQL syntax; check the manual that corresponds to your MySQL server version for the right syntax to use near \'of products\' at line 1")\n'
p11
s.